target datalayout = "e-m:e-p270:32:32-p271:32:32-p272:64:64-i64:64-i128:128-f80:128-n8:16:32:64-S128"
target triple = "x86_64-pc-linux-gnu"

%struct.AVFilterPad = type { ptr, i32, i32, %union.anon, ptr, ptr, ptr }
%union.anon = type { ptr }
%struct.AVFilterContext = type { ptr, ptr, ptr, ptr, ptr, i32, ptr, ptr, i32, ptr, ptr, i32, i32, ptr, ptr, ptr, ptr, i32, ptr, i32, i32 }
%struct.LimitDiffContext = type { ptr, float, float, i32, i32, i32, i32, [4 x i32], [4 x i32], [4 x i32], i32, i32, %struct.FFFrameSync, ptr }
%struct.FFFrameSync = type { ptr, ptr, i32, %struct.AVRational, i64, ptr, ptr, i32, i32, i8, i8, ptr, i32, i32, i32, i32 }
%struct.AVRational = type { i32, i32 }

@.str.10 = private unnamed_addr constant [10 x i8] c"reference\00", align 1
@__const.init.pad = private unnamed_addr constant %struct.AVFilterPad { ptr @.str.15, i32 0, i32 0, %union.anon zeroinitializer, ptr null, ptr null, ptr @config_input }, align 8
@.str.16 = private unnamed_addr constant [7 x i8] c"source\00", align 1

; Function Attrs: cold nounwind optsize uwtable
define internal i32 @init(ptr noundef %0) #0 {
  %2 = alloca i32, align 4
  %3 = alloca ptr, align 8
  %4 = alloca ptr, align 8
  %5 = alloca %struct.AVFilterPad, align 8
  %6 = alloca i32, align 4
  %7 = alloca i32, align 4
  store ptr %0, ptr %3, align 8, !tbaa !4
  call void @llvm.lifetime.start.p0(i64 8, ptr %4) #10
  %8 = load ptr, ptr %3, align 8, !tbaa !4
  %9 = getelementptr inbounds nuw %struct.AVFilterContext, ptr %8, i32 0, i32 9
  %10 = load ptr, ptr %9, align 8, !tbaa !9
  store ptr %10, ptr %4, align 8, !tbaa !22
  call void @llvm.lifetime.start.p0(i64 48, ptr %5) #10
  call void @llvm.memcpy.p0.p0.i64(ptr align 8 %5, ptr align 8 @__const.init.pad, i64 48, i1 false)
  call void @llvm.lifetime.start.p0(i64 4, ptr %6) #10
  %11 = load ptr, ptr %3, align 8, !tbaa !4
  %12 = call i32 @ff_append_inpad(ptr noundef %11, ptr noundef %5)
  store i32 %12, ptr %6, align 4, !tbaa !24
  %13 = icmp slt i32 %12, 0
  br i1 %13, label %14, label %16

14:                                               ; preds = %1
  %15 = load i32, ptr %6, align 4, !tbaa !24
  store i32 %15, ptr %2, align 4
  store i32 1, ptr %7, align 4
  br label %39

16:                                               ; preds = %1
  %17 = getelementptr inbounds nuw %struct.AVFilterPad, ptr %5, i32 0, i32 0
  store ptr @.str.16, ptr %17, align 8, !tbaa !25
  %18 = getelementptr inbounds nuw %struct.AVFilterPad, ptr %5, i32 0, i32 6
  store ptr null, ptr %18, align 8, !tbaa !27
  %19 = load ptr, ptr %3, align 8, !tbaa !4
  %20 = call i32 @ff_append_inpad(ptr noundef %19, ptr noundef %5)
  store i32 %20, ptr %6, align 4, !tbaa !24
  %21 = icmp slt i32 %20, 0
  br i1 %21, label %22, label %24

22:                                               ; preds = %16
  %23 = load i32, ptr %6, align 4, !tbaa !24
  store i32 %23, ptr %2, align 4
  store i32 1, ptr %7, align 4
  br label %39

24:                                               ; preds = %16
  %25 = load ptr, ptr %4, align 8, !tbaa !22
  %26 = getelementptr inbounds nuw %struct.LimitDiffContext, ptr %25, i32 0, i32 3
  %27 = load i32, ptr %26, align 8, !tbaa !28
  %28 = icmp ne i32 %27, 0
  br i1 %28, label %29, label %38

29:                                               ; preds = %24
  %30 = getelementptr inbounds nuw %struct.AVFilterPad, ptr %5, i32 0, i32 0
  store ptr @.str.10, ptr %30, align 8, !tbaa !25
  %31 = getelementptr inbounds nuw %struct.AVFilterPad, ptr %5, i32 0, i32 6
  store ptr null, ptr %31, align 8, !tbaa !27
  %32 = load ptr, ptr %3, align 8, !tbaa !4
  %33 = call i32 @ff_append_inpad(ptr noundef %32, ptr noundef %5)
  store i32 %33, ptr %6, align 4, !tbaa !24
  %34 = icmp slt i32 %33, 0
  br i1 %34, label %35, label %37

35:                                               ; preds = %29
  %36 = load i32, ptr %6, align 4, !tbaa !24
  store i32 %36, ptr %2, align 4
  store i32 1, ptr %7, align 4
  br label %39

37:                                               ; preds = %29
  br label %38

38:                                               ; preds = %37, %24
  store i32 0, ptr %2, align 4
  store i32 1, ptr %7, align 4
  br label %39

39:                                               ; preds = %38, %35, %22, %14
  call void @llvm.lifetime.end.p0(i64 4, ptr %6) #10
  call void @llvm.lifetime.end.p0(i64 48, ptr %5) #10
  call void @llvm.lifetime.end.p0(i64 8, ptr %4) #10
  %40 = load i32, ptr %2, align 4
  ret i32 %40
}