; Function Attrs: cold nounwind optsize uwtable
define internal range(i32 -2147483648, 1) i32 @init(ptr noundef %0) #0 {
  %2 = alloca %struct.AVFilterPad, align 8
  %3 = getelementptr inbounds nuw i8, ptr %0, i64 72
  %4 = load ptr, ptr %3, align 8, !tbaa !4
  call void @llvm.lifetime.start.p0(i64 48, ptr nonnull %2) #9
  call void @llvm.memcpy.p0.p0.i64(ptr noundef nonnull align 8 dereferenceable(48) %2, ptr noundef nonnull align 8 dereferenceable(48) @__const.init.pad, i64 48, i1 false)
  %5 = call i32 @ff_append_inpad(ptr noundef %0, ptr noundef nonnull %2) #9
  %6 = icmp slt i32 %5, 0
  br i1 %6, label %18, label %7

7:                                                ; preds = %1
  store ptr @.str.16, ptr %2, align 8, !tbaa !20
  %8 = getelementptr inbounds nuw i8, ptr %2, i64 40
  store ptr null, ptr %8, align 8, !tbaa !22
  %9 = call i32 @ff_append_inpad(ptr noundef nonnull %0, ptr noundef nonnull %2) #9
  %10 = icmp slt i32 %9, 0
  br i1 %10, label %18, label %11

11:                                               ; preds = %7
  %12 = getelementptr inbounds nuw i8, ptr %4, i64 16
  %13 = load i32, ptr %12, align 8, !tbaa !23
  %.not = icmp eq i32 %13, 0
  br i1 %.not, label %17, label %14

14:                                               ; preds = %11
  store ptr @.str.10, ptr %2, align 8, !tbaa !20
  store ptr null, ptr %8, align 8, !tbaa !22
  %15 = call i32 @ff_append_inpad(ptr noundef nonnull %0, ptr noundef nonnull %2) #9
  %16 = icmp slt i32 %15, 0
  br i1 %16, label %18, label %17

17:                                               ; preds = %14, %11
  br label %18

18:                                               ; preds = %14, %7, %1, %17
  %.0 = phi i32 [ 0, %17 ], [ %5, %1 ], [ %9, %7 ], [ %15, %14 ]
  call void @llvm.lifetime.end.p0(i64 48, ptr nonnull %2) #9
  ret i32 %.0
}